target datalayout = "e-m:e-p270:32:32-p271:32:32-p272:64:64-i64:64-i128:128-f80:128-n8:16:32:64-S128"
target triple = "x86_64-pc-linux-gnu"

%class.inputStream = type { ptr, ptr, i32, i8, ptr, i64, i64, i64, i64, i64, i64, [240 x i8] }

@_ZTV11inputStream = external unnamed_addr constant { [4 x ptr] }, align 8
@.str.140 = private unnamed_addr constant [1 x i8] zeroinitializer, align 1

; Function Attrs: mustprogress nounwind uwtable
define linkonce_odr hidden noundef zeroext i1 @_ZNK11inputStream12need_to_readEv(ptr noundef nonnull align 8 dereferenceable(320) %0) #1 comdat align 2 {
  %2 = alloca ptr, align 8
  store ptr %0, ptr %2, align 8
  %3 = load ptr, ptr %2, align 8
  %4 = getelementptr inbounds %class.inputStream, ptr %3, i32 0, i32 9
  %5 = load i64, ptr %4, align 8
  %6 = getelementptr inbounds %class.inputStream, ptr %3, i32 0, i32 8
  %7 = load i64, ptr %6, align 8
  %8 = icmp eq i64 %5, %7
  ret i1 %8
}

; Function Attrs: mustprogress nounwind uwtable
define linkonce_odr hidden noundef zeroext i1 @_ZNK11inputStream15definitely_doneEv(ptr noundef nonnull align 8 dereferenceable(320) %0) #1 comdat align 2 {
  %2 = alloca ptr, align 8
  store ptr %0, ptr %2, align 8
  %3 = load ptr, ptr %2, align 8
  %4 = getelementptr inbounds %class.inputStream, ptr %3, i32 0, i32 7
  %5 = load i64, ptr %4, align 8
  %6 = getelementptr inbounds %class.inputStream, ptr %3, i32 0, i32 6
  %7 = load i64, ptr %6, align 8
  %8 = icmp eq i64 %5, %7
  br i1 %8, label %9, label %15

9:                                                ; preds = %1
  %10 = getelementptr inbounds %class.inputStream, ptr %3, i32 0, i32 9
  %11 = load i64, ptr %10, align 8
  %12 = getelementptr inbounds %class.inputStream, ptr %3, i32 0, i32 6
  %13 = load i64, ptr %12, align 8
  %14 = icmp ugt i64 %11, %13
  br label %15

15:                                               ; preds = %9, %1
  %16 = phi i1 [ false, %1 ], [ %14, %9 ]
  ret i1 %16
}

; Function Attrs: mustprogress nounwind uwtable
define linkonce_odr hidden void @_ZNK11inputStream7preloadEv(ptr noundef nonnull align 8 dereferenceable(320) %0) #1 comdat align 2 {
  %2 = alloca ptr, align 8
  store ptr %0, ptr %2, align 8
  %3 = load ptr, ptr %2, align 8
  %4 = call noundef zeroext i1 @_ZNK11inputStream12need_to_readEv(ptr noundef nonnull align 8 dereferenceable(320) %3)
  br i1 %4, label %5, label %7

5:                                                ; preds = %1
  %6 = call noundef zeroext i1 @_ZN11inputStream11fill_bufferEv(ptr noundef nonnull align 8 dereferenceable(320) %3)
  br label %7

7:                                                ; preds = %5, %1
  ret void
}

; Function Attrs: mustprogress nounwind uwtable
define linkonce_odr hidden void @_ZN11inputStreamC2Ev(ptr noundef nonnull align 8 dereferenceable(320) %0) unnamed_addr #1 comdat align 2 {
  %2 = alloca ptr, align 8
  store ptr %0, ptr %2, align 8
  %3 = load ptr, ptr %2, align 8
  store ptr getelementptr inbounds inrange(-16, 16) ({ [4 x ptr] }, ptr @_ZTV11inputStream, i32 0, i32 0, i32 2), ptr %3, align 8
  %4 = getelementptr inbounds %class.inputStream, ptr %3, i32 0, i32 1
  store ptr null, ptr %4, align 8
  %5 = getelementptr inbounds %class.inputStream, ptr %3, i32 0, i32 2
  store i32 0, ptr %5, align 8
  %6 = getelementptr inbounds %class.inputStream, ptr %3, i32 0, i32 3
  store i8 0, ptr %6, align 4
  %7 = getelementptr inbounds %class.inputStream, ptr %3, i32 0, i32 4
  %8 = getelementptr inbounds %class.inputStream, ptr %3, i32 0, i32 11
  %9 = getelementptr inbounds [240 x i8], ptr %8, i64 0, i64 0
  store ptr %9, ptr %7, align 8
  %10 = getelementptr inbounds %class.inputStream, ptr %3, i32 0, i32 5
  store i64 240, ptr %10, align 8
  %11 = getelementptr inbounds %class.inputStream, ptr %3, i32 0, i32 6
  store i64 0, ptr %11, align 8
  %12 = getelementptr inbounds %class.inputStream, ptr %3, i32 0, i32 7
  store i64 0, ptr %12, align 8
  %13 = getelementptr inbounds %class.inputStream, ptr %3, i32 0, i32 8
  store i64 0, ptr %13, align 8
  %14 = getelementptr inbounds %class.inputStream, ptr %3, i32 0, i32 9
  store i64 0, ptr %14, align 8
  %15 = getelementptr inbounds %class.inputStream, ptr %3, i32 0, i32 10
  store i64 0, ptr %15, align 8
  ret void
}

; Function Attrs: mustprogress nounwind uwtable
define linkonce_odr hidden noundef ptr @_ZNK11inputStream12current_lineEv(ptr noundef nonnull align 8 dereferenceable(320) %0) #1 comdat align 2 {
  %2 = alloca ptr, align 8
  %3 = alloca ptr, align 8
  store ptr %0, ptr %3, align 8
  %4 = load ptr, ptr %3, align 8
  call void @_ZNK11inputStream7preloadEv(ptr noundef nonnull align 8 dereferenceable(320) %4)
  %5 = call noundef zeroext i1 @_ZNK11inputStream15definitely_doneEv(ptr noundef nonnull align 8 dereferenceable(320) %4)
  br i1 %5, label %6, label %7

6:                                                ; preds = %1
  store ptr @.str.140, ptr %2, align 8
  br label %13

7:                                                ; preds = %1
  %8 = getelementptr inbounds %class.inputStream, ptr %4, i32 0, i32 4
  %9 = load ptr, ptr %8, align 8
  %10 = getelementptr inbounds %class.inputStream, ptr %4, i32 0, i32 7
  %11 = load i64, ptr %10, align 8
  %12 = getelementptr inbounds i8, ptr %9, i64 %11
  store ptr %12, ptr %2, align 8
  br label %13

13:                                               ; preds = %7, %6
  %14 = load ptr, ptr %2, align 8
  ret ptr %14
}

; Function Attrs: mustprogress nounwind uwtable
define linkonce_odr hidden noundef zeroext i1 @_ZNK11inputStream4doneEv(ptr noundef nonnull align 8 dereferenceable(320) %0) #1 comdat align 2 {
  %2 = alloca ptr, align 8
  store ptr %0, ptr %2, align 8
  %3 = load ptr, ptr %2, align 8
  call void @_ZNK11inputStream7preloadEv(ptr noundef nonnull align 8 dereferenceable(320) %3)
  %4 = call noundef zeroext i1 @_ZNK11inputStream15definitely_doneEv(ptr noundef nonnull align 8 dereferenceable(320) %3)
  ret i1 %4
}

; Function Attrs: mustprogress nounwind uwtable
define linkonce_odr hidden void @_ZN11inputStreamC2EPNS_5InputE(ptr noundef nonnull align 8 dereferenceable(320) %0, ptr noundef %1) unnamed_addr #1 comdat align 2 {
  %3 = alloca ptr, align 8
  %4 = alloca ptr, align 8
  store ptr %0, ptr %3, align 8
  store ptr %1, ptr %4, align 8
  %5 = load ptr, ptr %3, align 8
  call void @_ZN11inputStreamC2Ev(ptr noundef nonnull align 8 dereferenceable(320) %5)
  %6 = load ptr, ptr %4, align 8
  call void @_ZN11inputStream9set_inputEPNS_5InputE(ptr noundef nonnull align 8 dereferenceable(320) %5, ptr noundef %6)
  ret void
}

; Function Attrs: mustprogress nounwind uwtable
define hidden noundef zeroext i1 @_ZN14CompilerOracle16parse_from_inputEPN11inputStream5InputEPFbPcE(ptr noundef %0, ptr noundef %1) #1 align 2 {
  %3 = alloca ptr, align 8
  %4 = alloca ptr, align 8
  %5 = alloca i8, align 1
  %6 = alloca %class.inputStream, align 8
  store ptr %0, ptr %3, align 8
  store ptr %1, ptr %4, align 8
  store i8 1, ptr %5, align 1
  %7 = load ptr, ptr %3, align 8
  call void @_ZN11inputStreamC2EPNS_5InputE(ptr noundef nonnull align 8 dereferenceable(320) %6, ptr noundef %7)
  br label %8

8:                                                ; preds = %18, %2
  %9 = call noundef zeroext i1 @_ZNK11inputStream4doneEv(ptr noundef nonnull align 8 dereferenceable(320) %6)
  %10 = xor i1 %9, true
  br i1 %10, label %12, label %11

11:                                               ; preds = %8
  call void @_ZN11inputStreamD1Ev(ptr noundef nonnull align 8 dereferenceable(320) %6) #11
  br label %20

12:                                               ; preds = %8
  %13 = load ptr, ptr %4, align 8
  %14 = call noundef ptr @_ZNK11inputStream12current_lineEv(ptr noundef nonnull align 8 dereferenceable(320) %6)
  %15 = call noundef zeroext i1 %13(ptr noundef %14)
  br i1 %15, label %17, label %16

16:                                               ; preds = %12
  store i8 0, ptr %5, align 1
  br label %17

17:                                               ; preds = %16, %12
  br label %18

18:                                               ; preds = %17
  %19 = call noundef zeroext i1 @_ZN11inputStream4nextEv(ptr noundef nonnull align 8 dereferenceable(320) %6)
  br label %8, !llvm.loop !13

20:                                               ; preds = %11
  %21 = load i8, ptr %5, align 1
  %22 = trunc i8 %21 to i1
  ret i1 %22
}