; Function Attrs: mustprogress nounwind uwtable
define hidden noundef zeroext i1 @_ZN14CompilerOracle16parse_from_inputEPN11inputStream5InputEPFbPcE(ptr noundef %0, ptr nocapture noundef readonly %1) local_unnamed_addr #2 align 2 {
  %3 = alloca %class.inputStream, align 8
  store ptr getelementptr inbounds inrange(-16, 16) (i8, ptr @_ZTV11inputStream, i64 16), ptr %3, align 8
  %4 = getelementptr inbounds i8, ptr %3, i64 8
  store ptr null, ptr %4, align 8
  %5 = getelementptr inbounds i8, ptr %3, i64 16
  store i32 0, ptr %5, align 8
  %6 = getelementptr inbounds i8, ptr %3, i64 20
  store i8 0, ptr %6, align 4
  %7 = getelementptr inbounds i8, ptr %3, i64 24
  %8 = getelementptr inbounds i8, ptr %3, i64 80
  store ptr %8, ptr %7, align 8
  %9 = getelementptr inbounds i8, ptr %3, i64 32
  store i64 240, ptr %9, align 8
  %10 = getelementptr inbounds i8, ptr %3, i64 40
  call void @llvm.memset.p0.i64(ptr noundef nonnull align 8 dereferenceable(40) %10, i8 0, i64 40, i1 false)
  call void @_ZN11inputStream9set_inputEPNS_5InputE(ptr noundef nonnull align 8 dereferenceable(320) %3, ptr noundef %0) #19
  %11 = getelementptr inbounds i8, ptr %3, i64 64
  %12 = getelementptr inbounds i8, ptr %3, i64 56
  %13 = getelementptr inbounds i8, ptr %3, i64 48
  br label %14

14:                                               ; preds = %_ZNK11inputStream12current_lineEv.exit, %2
  %.0 = phi i1 [ true, %2 ], [ %spec.select, %_ZNK11inputStream12current_lineEv.exit ]
  %15 = load i64, ptr %11, align 8
  %16 = load i64, ptr %12, align 8
  %17 = icmp eq i64 %15, %16
  br i1 %17, label %18, label %_ZNK11inputStream4doneEv.exit

18:                                               ; preds = %14
  %19 = call noundef zeroext i1 @_ZN11inputStream11fill_bufferEv(ptr noundef nonnull align 8 dereferenceable(320) %3) #19
  %.pre.i = load i64, ptr %11, align 8
  br label %_ZNK11inputStream4doneEv.exit

_ZNK11inputStream4doneEv.exit:                    ; preds = %14, %18
  %20 = phi i64 [ %15, %14 ], [ %.pre.i, %18 ]
  %21 = load i64, ptr %13, align 8
  %22 = load i64, ptr %10, align 8
  %23 = icmp eq i64 %21, %22
  %24 = icmp ugt i64 %20, %22
  %25 = select i1 %23, i1 %24, i1 false
  br i1 %25, label %26, label %27

26:                                               ; preds = %_ZNK11inputStream4doneEv.exit
  call void @_ZN11inputStreamD1Ev(ptr noundef nonnull align 8 dereferenceable(320) %3) #19
  ret i1 %.0

27:                                               ; preds = %_ZNK11inputStream4doneEv.exit
  %28 = load i64, ptr %12, align 8
  %29 = icmp eq i64 %20, %28
  br i1 %29, label %30, label %_ZNK11inputStream12current_lineEv.exit

30:                                               ; preds = %27
  %31 = call noundef zeroext i1 @_ZN11inputStream11fill_bufferEv(ptr noundef nonnull align 8 dereferenceable(320) %3) #19
  %.pre.i2 = load i64, ptr %11, align 8
  %.pre = load i64, ptr %13, align 8
  %.pre3 = load i64, ptr %10, align 8
  br label %_ZNK11inputStream12current_lineEv.exit

_ZNK11inputStream12current_lineEv.exit:           ; preds = %27, %30
  %32 = phi i64 [ %22, %27 ], [ %.pre3, %30 ]
  %33 = phi i64 [ %21, %27 ], [ %.pre, %30 ]
  %34 = phi i64 [ %20, %27 ], [ %.pre.i2, %30 ]
  %35 = icmp eq i64 %33, %32
  %36 = icmp ugt i64 %34, %32
  %37 = select i1 %35, i1 %36, i1 false
  %38 = load ptr, ptr %7, align 8
  %39 = getelementptr inbounds i8, ptr %38, i64 %33
  %.0.i = select i1 %37, ptr @.str.140, ptr %39
  %40 = call noundef zeroext i1 %1(ptr noundef %.0.i) #19
  %spec.select = select i1 %40, i1 %.0, i1 false
  %41 = call noundef zeroext i1 @_ZN11inputStream4nextEv(ptr noundef nonnull align 8 dereferenceable(320) %3) #19
  br label %14, !llvm.loop !14
}